target datalayout = "e-m:e-p270:32:32-p271:32:32-p272:64:64-i64:64-i128:128-f80:128-n8:16:32:64-S128"
target triple = "x86_64-pc-linux-gnu"

%"class.llvm::dwarf::UnwindLocation" = type <{ i32, i32, i32, %"class.std::optional", [4 x i8], %"class.std::optional.0", i8, [7 x i8] }>
%"class.std::optional" = type { %"struct.std::_Optional_base" }
%"struct.std::_Optional_base" = type { %"struct.std::_Optional_payload" }
%"struct.std::_Optional_payload" = type { %"struct.std::_Optional_payload_base.base", [3 x i8] }
%"struct.std::_Optional_payload_base.base" = type <{ %"union.std::_Optional_payload_base<unsigned int>::_Storage", i8 }>
%"union.std::_Optional_payload_base<unsigned int>::_Storage" = type { i32 }
%"class.std::optional.0" = type { %"struct.std::_Optional_base.1" }
%"struct.std::_Optional_base.1" = type { %"struct.std::_Optional_payload.3" }
%"struct.std::_Optional_payload.3" = type { %"struct.std::_Optional_payload_base.base.11", [7 x i8] }
%"struct.std::_Optional_payload_base.base.11" = type { %"union.std::_Optional_payload_base<llvm::DWARFExpression>::_Storage", i8 }
%"union.std::_Optional_payload_base<llvm::DWARFExpression>::_Storage" = type { %"class.llvm::DWARFExpression" }
%"class.llvm::DWARFExpression" = type { %"class.llvm::DataExtractor", i8, %"class.std::optional.5", [5 x i8] }
%"class.llvm::DataExtractor" = type <{ %"class.llvm::StringRef", i8, i8, [6 x i8] }>
%"class.llvm::StringRef" = type { ptr, i64 }
%"class.std::optional.5" = type { %"struct.std::_Optional_base.6" }
%"struct.std::_Optional_base.6" = type { %"struct.std::_Optional_payload.8" }
%"struct.std::_Optional_payload.8" = type { %"struct.std::_Optional_payload_base.9" }
%"struct.std::_Optional_payload_base.9" = type { %"union.std::_Optional_payload_base<llvm::dwarf::DwarfFormat>::_Storage", i8 }
%"union.std::_Optional_payload_base<llvm::dwarf::DwarfFormat>::_Storage" = type { %"struct.std::_Optional_payload_base<llvm::dwarf::DwarfFormat>::_Empty_byte" }
%"struct.std::_Optional_payload_base<llvm::dwarf::DwarfFormat>::_Empty_byte" = type { i8 }
%"struct.std::_Optional_payload_base.4" = type { %"union.std::_Optional_payload_base<llvm::DWARFExpression>::_Storage", i8, [7 x i8] }
%"struct.std::_Optional_payload_base" = type <{ %"union.std::_Optional_payload_base<unsigned int>::_Storage", i8, [3 x i8] }>

; Function Attrs: mustprogress nounwind uwtable
define linkonce_odr hidden void @_ZNSt22_Optional_payload_baseIN4llvm15DWARFExpressionEE8_StorageIS1_Lb1EEC2Ev(ptr noundef nonnull align 8 dereferenceable(32) %0) unnamed_addr #0 comdat align 2 {
  %2 = alloca ptr, align 8
  store ptr %0, ptr %2, align 8
  ret void
}

; Function Attrs: mustprogress nounwind uwtable
define linkonce_odr hidden void @_ZNSt22_Optional_payload_baseIN4llvm15DWARFExpressionEEC2Ev(ptr noundef nonnull align 8 dereferenceable(33) %0) unnamed_addr #0 comdat align 2 {
  %2 = alloca ptr, align 8
  store ptr %0, ptr %2, align 8
  %3 = load ptr, ptr %2, align 8
  %4 = getelementptr inbounds nuw %"struct.std::_Optional_payload_base.4", ptr %3, i32 0, i32 0
  call void @_ZNSt22_Optional_payload_baseIN4llvm15DWARFExpressionEE8_StorageIS1_Lb1EEC2Ev(ptr noundef nonnull align 8 dereferenceable(32) %4) #12
  %5 = getelementptr inbounds nuw %"struct.std::_Optional_payload_base.4", ptr %3, i32 0, i32 1
  store i8 0, ptr %5, align 8
  ret void
}

; Function Attrs: mustprogress nounwind uwtable
define linkonce_odr hidden void @_ZNSt22_Optional_payload_baseIjE8_StorageIjLb1EEC2Ev(ptr noundef nonnull align 4 dereferenceable(4) %0) unnamed_addr #0 comdat align 2 {
  %2 = alloca ptr, align 8
  store ptr %0, ptr %2, align 8
  ret void
}

; Function Attrs: mustprogress nounwind uwtable
define linkonce_odr hidden void @_ZNSt17_Optional_payloadIN4llvm15DWARFExpressionELb1ELb1ELb1EEC2Ev(ptr noundef nonnull align 8 dereferenceable(33) %0) unnamed_addr #0 comdat align 2 {
  %2 = alloca ptr, align 8
  store ptr %0, ptr %2, align 8
  %3 = load ptr, ptr %2, align 8
  call void @_ZNSt22_Optional_payload_baseIN4llvm15DWARFExpressionEEC2Ev(ptr noundef nonnull align 8 dereferenceable(33) %3) #12
  ret void
}

; Function Attrs: mustprogress nounwind uwtable
define linkonce_odr hidden void @_ZNSt22_Optional_payload_baseIjEC2Ev(ptr noundef nonnull align 4 dereferenceable(5) %0) unnamed_addr #0 comdat align 2 {
  %2 = alloca ptr, align 8
  store ptr %0, ptr %2, align 8
  %3 = load ptr, ptr %2, align 8
  %4 = getelementptr inbounds nuw %"struct.std::_Optional_payload_base", ptr %3, i32 0, i32 0
  call void @_ZNSt22_Optional_payload_baseIjE8_StorageIjLb1EEC2Ev(ptr noundef nonnull align 4 dereferenceable(4) %4) #12
  %5 = getelementptr inbounds nuw %"struct.std::_Optional_payload_base", ptr %3, i32 0, i32 1
  store i8 0, ptr %5, align 4
  ret void
}

; Function Attrs: mustprogress nounwind uwtable
define linkonce_odr hidden void @_ZNSt14_Optional_baseIN4llvm15DWARFExpressionELb1ELb1EEC2Ev(ptr noundef nonnull align 8 dereferenceable(40) %0) unnamed_addr #0 comdat align 2 {
  %2 = alloca ptr, align 8
  store ptr %0, ptr %2, align 8
  %3 = load ptr, ptr %2, align 8
  %4 = getelementptr inbounds nuw %"struct.std::_Optional_base.1", ptr %3, i32 0, i32 0
  call void @_ZNSt17_Optional_payloadIN4llvm15DWARFExpressionELb1ELb1ELb1EEC2Ev(ptr noundef nonnull align 8 dereferenceable(33) %4) #12
  ret void
}

; Function Attrs: mustprogress nounwind uwtable
define linkonce_odr hidden void @_ZNSt17_Optional_payloadIjLb1ELb1ELb1EEC2Ev(ptr noundef nonnull align 4 dereferenceable(5) %0) unnamed_addr #0 comdat align 2 {
  %2 = alloca ptr, align 8
  store ptr %0, ptr %2, align 8
  %3 = load ptr, ptr %2, align 8
  call void @_ZNSt22_Optional_payload_baseIjEC2Ev(ptr noundef nonnull align 4 dereferenceable(5) %3) #12
  ret void
}

; Function Attrs: mustprogress nounwind uwtable
define linkonce_odr hidden void @_ZNSt8optionalIN4llvm15DWARFExpressionEEC2Ev(ptr noundef nonnull align 8 dereferenceable(40) %0) unnamed_addr #0 comdat align 2 {
  %2 = alloca ptr, align 8
  store ptr %0, ptr %2, align 8
  %3 = load ptr, ptr %2, align 8
  call void @_ZNSt14_Optional_baseIN4llvm15DWARFExpressionELb1ELb1EEC2Ev(ptr noundef nonnull align 8 dereferenceable(40) %3) #12
  ret void
}

; Function Attrs: mustprogress nounwind uwtable
define linkonce_odr hidden void @_ZNSt14_Optional_baseIjLb1ELb1EEC2Ev(ptr noundef nonnull align 4 dereferenceable(8) %0) unnamed_addr #0 comdat align 2 {
  %2 = alloca ptr, align 8
  store ptr %0, ptr %2, align 8
  %3 = load ptr, ptr %2, align 8
  %4 = getelementptr inbounds nuw %"struct.std::_Optional_base", ptr %3, i32 0, i32 0
  call void @_ZNSt17_Optional_payloadIjLb1ELb1ELb1EEC2Ev(ptr noundef nonnull align 4 dereferenceable(5) %4) #12
  ret void
}

; Function Attrs: mustprogress nounwind uwtable
define linkonce_odr hidden void @_ZN4llvm5dwarf14UnwindLocationC2ENS1_8LocationEjiSt8optionalIjEb(ptr noundef nonnull align 8 dereferenceable(65) %0, i32 noundef %1, i32 noundef %2, i32 noundef %3, i64 %4, i1 noundef zeroext %5) unnamed_addr #0 comdat align 2 {
  %7 = alloca %"class.std::optional", align 4
  %8 = alloca ptr, align 8
  %9 = alloca i32, align 4
  %10 = alloca i32, align 4
  %11 = alloca i32, align 4
  %12 = alloca i8, align 1
  %13 = getelementptr inbounds nuw %"class.std::optional", ptr %7, i32 0, i32 0
  %14 = getelementptr inbounds nuw %"struct.std::_Optional_base", ptr %13, i32 0, i32 0
  store i64 %4, ptr %14, align 4
  store ptr %0, ptr %8, align 8
  store i32 %1, ptr %9, align 4
  store i32 %2, ptr %10, align 4
  store i32 %3, ptr %11, align 4
  %15 = zext i1 %5 to i8
  store i8 %15, ptr %12, align 1
  %16 = load ptr, ptr %8, align 8
  %17 = getelementptr inbounds nuw %"class.llvm::dwarf::UnwindLocation", ptr %16, i32 0, i32 0
  %18 = load i32, ptr %9, align 4
  store i32 %18, ptr %17, align 8
  %19 = getelementptr inbounds nuw %"class.llvm::dwarf::UnwindLocation", ptr %16, i32 0, i32 1
  %20 = load i32, ptr %10, align 4
  store i32 %20, ptr %19, align 4
  %21 = getelementptr inbounds nuw %"class.llvm::dwarf::UnwindLocation", ptr %16, i32 0, i32 2
  %22 = load i32, ptr %11, align 4
  store i32 %22, ptr %21, align 8
  %23 = getelementptr inbounds nuw %"class.llvm::dwarf::UnwindLocation", ptr %16, i32 0, i32 3
  call void @llvm.memcpy.p0.p0.i64(ptr align 4 %23, ptr align 4 %7, i64 8, i1 false)
  %24 = getelementptr inbounds nuw %"class.llvm::dwarf::UnwindLocation", ptr %16, i32 0, i32 5
  call void @_ZNSt8optionalIN4llvm15DWARFExpressionEEC2Ev(ptr noundef nonnull align 8 dereferenceable(40) %24) #12
  %25 = getelementptr inbounds nuw %"class.llvm::dwarf::UnwindLocation", ptr %16, i32 0, i32 6
  %26 = load i8, ptr %12, align 1
  %27 = trunc i8 %26 to i1
  %28 = zext i1 %27 to i8
  store i8 %28, ptr %25, align 8
  ret void
}

; Function Attrs: mustprogress nounwind uwtable
define linkonce_odr hidden void @_ZNSt8optionalIjEC2ESt9nullopt_t(ptr noundef nonnull align 4 dereferenceable(8) %0) unnamed_addr #0 comdat align 2 {
  %2 = alloca ptr, align 8
  store ptr %0, ptr %2, align 8
  %3 = load ptr, ptr %2, align 8
  call void @_ZNSt14_Optional_baseIjLb1ELb1EEC2Ev(ptr noundef nonnull align 4 dereferenceable(8) %3) #12
  ret void
}

; Function Attrs: mustprogress nounwind uwtable
define dso_local void @_ZN4llvm5dwarf14UnwindLocation21createAtCFAPlusOffsetEi(ptr dead_on_unwind noalias writable sret(%"class.llvm::dwarf::UnwindLocation") align 8 %0, i32 noundef %1) #0 align 2 {
  %3 = alloca i32, align 4
  %4 = alloca %"class.std::optional", align 4
  store i32 %1, ptr %3, align 4
  %5 = load i32, ptr %3, align 4
  call void @_ZNSt8optionalIjEC2ESt9nullopt_t(ptr noundef nonnull align 4 dereferenceable(8) %4) #12
  %6 = getelementptr inbounds nuw %"class.std::optional", ptr %4, i32 0, i32 0
  %7 = getelementptr inbounds nuw %"struct.std::_Optional_base", ptr %6, i32 0, i32 0
  %8 = load i64, ptr %7, align 4
  call void @_ZN4llvm5dwarf14UnwindLocationC2ENS1_8LocationEjiSt8optionalIjEb(ptr noundef nonnull align 8 dereferenceable(65) %0, i32 noundef 3, i32 noundef -1, i32 noundef %5, i64 %8, i1 noundef zeroext true)
  ret void
}